target datalayout = "e-m:e-p270:32:32-p271:32:32-p272:64:64-i64:64-i128:128-f80:128-n8:16:32:64-S128"
target triple = "x86_64-unknown-linux-gnu"

%"class.lp::create_cut" = type { ptr, ptr, ptr, i32, ptr, ptr, %class.rational, %class.rational, %class.rational, %class.rational, %class.rational, %class.rational, %class.rational }
%class.rational = type { %class.mpq }
%class.mpq = type { %class.mpz, %class.mpz }
%class.mpz = type { i32, i8, ptr }
%"class.lp::gomory" = type { ptr, ptr }

; Function Attrs: mustprogress uwtable
define hidden noundef i32 @_ZN2lp6gomory3cutERNS_8lar_termER8rationalPNS_11explanationEjRK6vectorINS_8row_cellIS3_EELb1EjE(ptr noundef nonnull align 8 dereferenceable(16) %this, ptr noundef nonnull align 8 dereferenceable(24) %t, ptr noundef nonnull align 8 dereferenceable(32) %k, ptr noundef %ex, i32 noundef %basic_inf_int_j, ptr noundef nonnull align 8 dereferenceable(8) %row) #5 align 2 personality ptr @__gxx_personality_v0 {
entry:
  %this.addr = alloca ptr, align 8
  %t.addr = alloca ptr, align 8
  %k.addr = alloca ptr, align 8
  %ex.addr = alloca ptr, align 8
  %basic_inf_int_j.addr = alloca i32, align 4
  %row.addr = alloca ptr, align 8
  %cc = alloca %"class.lp::create_cut", align 8
  %exn.slot = alloca ptr, align 8
  %ehselector.slot = alloca i32, align 4
  store ptr %this, ptr %this.addr, align 8
  store ptr %t, ptr %t.addr, align 8
  store ptr %k, ptr %k.addr, align 8
  store ptr %ex, ptr %ex.addr, align 8
  store i32 %basic_inf_int_j, ptr %basic_inf_int_j.addr, align 4
  store ptr %row, ptr %row.addr, align 8
  %this1 = load ptr, ptr %this.addr, align 8
  %0 = load ptr, ptr %t.addr, align 8
  %1 = load ptr, ptr %k.addr, align 8
  %2 = load ptr, ptr %ex.addr, align 8
  %3 = load i32, ptr %basic_inf_int_j.addr, align 4
  %4 = load ptr, ptr %row.addr, align 8
  %lia = getelementptr inbounds %"class.lp::gomory", ptr %this1, i32 0, i32 0
  %5 = load ptr, ptr %lia, align 8
  call void @_ZN2lp10create_cutC2ERNS_8lar_termER8rationalPNS_11explanationEjRK6vectorINS_8row_cellIS3_EELb1EjERNS_10int_solverE(ptr noundef nonnull align 8 dereferenceable(272) %cc, ptr noundef nonnull align 8 dereferenceable(24) %0, ptr noundef nonnull align 8 dereferenceable(32) %1, ptr noundef %2, i32 noundef %3, ptr noundef nonnull align 8 dereferenceable(8) %4, ptr noundef nonnull align 8 dereferenceable(504) %5)
  %call = invoke noundef i32 @_ZN2lp10create_cut3cutEv(ptr noundef nonnull align 8 dereferenceable(272) %cc)
          to label %invoke.cont unwind label %lpad

invoke.cont:                                      ; preds = %entry
  call void @_ZN2lp10create_cutD2Ev(ptr noundef nonnull align 8 dereferenceable(272) %cc) #3
  ret i32 %call

lpad:                                             ; preds = %entry
  %6 = landingpad { ptr, i32 }
          cleanup
  %7 = extractvalue { ptr, i32 } %6, 0
  store ptr %7, ptr %exn.slot, align 8
  %8 = extractvalue { ptr, i32 } %6, 1
  store i32 %8, ptr %ehselector.slot, align 4
  call void @_ZN2lp10create_cutD2Ev(ptr noundef nonnull align 8 dereferenceable(272) %cc) #3
  br label %eh.resume

eh.resume:                                        ; preds = %lpad
  %exn = load ptr, ptr %exn.slot, align 8
  %sel = load i32, ptr %ehselector.slot, align 4
  %lpad.val = insertvalue { ptr, i32 } poison, ptr %exn, 0
  %lpad.val2 = insertvalue { ptr, i32 } %lpad.val, i32 %sel, 1
  resume { ptr, i32 } %lpad.val2
}