; Function Attrs: mustprogress uwtable
define hidden noundef i32 @_ZN2lp6gomory3cutERNS_8lar_termER8rationalPNS_11explanationEjRK6vectorINS_8row_cellIS3_EELb1EjE(ptr nocapture noundef nonnull readonly align 8 dereferenceable(16) %this, ptr noundef nonnull align 8 dereferenceable(24) %t, ptr noundef nonnull align 8 dereferenceable(32) %k, ptr noundef %ex, i32 noundef %basic_inf_int_j, ptr noundef nonnull align 8 dereferenceable(8) %row) local_unnamed_addr #3 align 2 personality ptr @__gxx_personality_v0 {
entry:
  %cc = alloca %"class.lp::create_cut", align 8
  %0 = load ptr, ptr %this, align 8
  call void @_ZN2lp10create_cutC2ERNS_8lar_termER8rationalPNS_11explanationEjRK6vectorINS_8row_cellIS3_EELb1EjERNS_10int_solverE(ptr noundef nonnull align 8 dereferenceable(272) %cc, ptr noundef nonnull align 8 dereferenceable(24) %t, ptr noundef nonnull align 8 dereferenceable(32) %k, ptr noundef %ex, i32 noundef %basic_inf_int_j, ptr noundef nonnull align 8 dereferenceable(8) %row, ptr noundef nonnull align 8 dereferenceable(504) %0)
  %call = invoke noundef i32 @_ZN2lp10create_cut3cutEv(ptr noundef nonnull align 8 dereferenceable(272) %cc)
          to label %invoke.cont unwind label %lpad

invoke.cont:                                      ; preds = %entry
  call void @_ZN2lp10create_cutD2Ev(ptr noundef nonnull align 8 dereferenceable(272) %cc) #16
  ret i32 %call

lpad:                                             ; preds = %entry
  %1 = landingpad { ptr, i32 }
          cleanup
  call void @_ZN2lp10create_cutD2Ev(ptr noundef nonnull align 8 dereferenceable(272) %cc) #16
  resume { ptr, i32 } %1
}